target datalayout = "e-m:e-p270:32:32-p271:32:32-p272:64:64-i64:64-i128:128-f80:128-n8:16:32:64-S128"
target triple = "x86_64-pc-linux-gnu"

%struct.wc_Sha512 = type { [8 x i64], [16 x i64], i32, i64, i64, ptr }

; Function Attrs: inlinehint nounwind uwtable
define internal void @ForceZero(ptr noundef %0, i32 noundef %1) #1 {
  %3 = alloca ptr, align 8
  %4 = alloca i32, align 4
  %5 = alloca ptr, align 8
  %6 = alloca ptr, align 8
  %7 = alloca i32, align 4
  store ptr %0, ptr %3, align 8, !tbaa !8
  store i32 %1, ptr %4, align 4, !tbaa !9
  call void @llvm.lifetime.start.p0(i64 8, ptr %5) #5
  %8 = load ptr, ptr %3, align 8, !tbaa !8
  store ptr %8, ptr %5, align 8, !tbaa !18
  call void @llvm.lifetime.start.p0(i64 8, ptr %6) #5
  call void @llvm.lifetime.start.p0(i64 4, ptr %7) #5
  %9 = load ptr, ptr %5, align 8, !tbaa !18
  %10 = ptrtoint ptr %9 to i64
  %11 = and i64 %10, 7
  %12 = sub i64 8, %11
  %13 = and i64 %12, 7
  %14 = trunc i64 %13 to i32
  store i32 %14, ptr %7, align 4, !tbaa !9
  %15 = load i32, ptr %4, align 4, !tbaa !9
  %16 = load i32, ptr %7, align 4, !tbaa !9
  %17 = icmp ult i32 %15, %16
  br i1 %17, label %18, label %20

18:                                               ; preds = %2
  %19 = load i32, ptr %4, align 4, !tbaa !9
  store i32 %19, ptr %7, align 4, !tbaa !9
  br label %20

20:                                               ; preds = %18, %2
  %21 = load i32, ptr %7, align 4, !tbaa !9
  %22 = load i32, ptr %4, align 4, !tbaa !9
  %23 = sub i32 %22, %21
  store i32 %23, ptr %4, align 4, !tbaa !9
  br label %24

24:                                               ; preds = %28, %20
  %25 = load i32, ptr %7, align 4, !tbaa !9
  %26 = add i32 %25, -1
  store i32 %26, ptr %7, align 4, !tbaa !9
  %27 = icmp ne i32 %25, 0
  br i1 %27, label %28, label %31

28:                                               ; preds = %24
  %29 = load ptr, ptr %5, align 8, !tbaa !18
  %30 = getelementptr inbounds nuw i8, ptr %29, i32 1
  store ptr %30, ptr %5, align 8, !tbaa !18
  store volatile i8 0, ptr %29, align 1, !tbaa !22
  br label %24, !llvm.loop !23

31:                                               ; preds = %24
  %32 = load ptr, ptr %5, align 8, !tbaa !18
  store ptr %32, ptr %6, align 8, !tbaa !24
  br label %33

33:                                               ; preds = %40, %31
  %34 = load i32, ptr %4, align 4, !tbaa !9
  %35 = zext i32 %34 to i64
  %36 = icmp uge i64 %35, 8
  br i1 %36, label %37, label %43

37:                                               ; preds = %33
  %38 = load ptr, ptr %6, align 8, !tbaa !24
  %39 = getelementptr inbounds nuw i64, ptr %38, i32 1
  store ptr %39, ptr %6, align 8, !tbaa !24
  store volatile i64 0, ptr %38, align 8, !tbaa !14
  br label %40

40:                                               ; preds = %37
  %41 = load i32, ptr %4, align 4, !tbaa !9
  %42 = sub i32 %41, 8
  store i32 %42, ptr %4, align 4, !tbaa !9
  br label %33, !llvm.loop !26

43:                                               ; preds = %33
  %44 = load ptr, ptr %6, align 8, !tbaa !24
  store ptr %44, ptr %5, align 8, !tbaa !18
  br label %45

45:                                               ; preds = %49, %43
  %46 = load i32, ptr %4, align 4, !tbaa !9
  %47 = add i32 %46, -1
  store i32 %47, ptr %4, align 4, !tbaa !9
  %48 = icmp ne i32 %46, 0
  br i1 %48, label %49, label %52

49:                                               ; preds = %45
  %50 = load ptr, ptr %5, align 8, !tbaa !18
  %51 = getelementptr inbounds nuw i8, ptr %50, i32 1
  store ptr %51, ptr %5, align 8, !tbaa !18
  store volatile i8 0, ptr %50, align 1, !tbaa !22
  br label %45, !llvm.loop !27

52:                                               ; preds = %45
  call void @llvm.lifetime.end.p0(i64 4, ptr %7) #5
  call void @llvm.lifetime.end.p0(i64 8, ptr %6) #5
  call void @llvm.lifetime.end.p0(i64 8, ptr %5) #5
  ret void
}

; Function Attrs: nounwind uwtable
define void @wc_Sha512Free(ptr noundef %0) #0 {
  %2 = alloca ptr, align 8
  store ptr %0, ptr %2, align 8, !tbaa !3
  %3 = load ptr, ptr %2, align 8, !tbaa !3
  %4 = icmp eq ptr %3, null
  br i1 %4, label %5, label %6

5:                                                ; preds = %1
  br label %8

6:                                                ; preds = %1
  %7 = load ptr, ptr %2, align 8, !tbaa !3
  call void @ForceZero(ptr noundef %7, i32 noundef 224)
  br label %8

8:                                                ; preds = %6, %5
  ret void
}

; Function Attrs: nounwind uwtable
define i32 @wc_Sha512Copy(ptr noundef %0, ptr noundef %1) #0 {
  %3 = alloca i32, align 4
  %4 = alloca ptr, align 8
  %5 = alloca ptr, align 8
  %6 = alloca i32, align 4
  %7 = alloca i32, align 4
  store ptr %0, ptr %4, align 8, !tbaa !3
  store ptr %1, ptr %5, align 8, !tbaa !3
  call void @llvm.lifetime.start.p0(i64 4, ptr %6) #5
  store i32 0, ptr %6, align 4, !tbaa !9
  %8 = load ptr, ptr %4, align 8, !tbaa !3
  %9 = icmp eq ptr %8, null
  br i1 %9, label %13, label %10

10:                                               ; preds = %2
  %11 = load ptr, ptr %5, align 8, !tbaa !3
  %12 = icmp eq ptr %11, null
  br i1 %12, label %13, label %14

13:                                               ; preds = %10, %2
  store i32 -173, ptr %3, align 4
  store i32 1, ptr %7, align 4
  br label %18

14:                                               ; preds = %10
  %15 = load ptr, ptr %5, align 8, !tbaa !3
  %16 = load ptr, ptr %4, align 8, !tbaa !3
  call void @llvm.memcpy.p0.p0.i64(ptr align 8 %15, ptr align 8 %16, i64 224, i1 false)
  %17 = load i32, ptr %6, align 4, !tbaa !9
  store i32 %17, ptr %3, align 4
  store i32 1, ptr %7, align 4
  br label %18

18:                                               ; preds = %14, %13
  call void @llvm.lifetime.end.p0(i64 4, ptr %6) #5
  %19 = load i32, ptr %3, align 4
  ret i32 %19
}

; Function Attrs: nounwind uwtable
define internal i32 @Sha512_Family_GetHash(ptr noundef %0, ptr noundef %1, ptr noundef %2) #0 {
  %4 = alloca i32, align 4
  %5 = alloca ptr, align 8
  %6 = alloca ptr, align 8
  %7 = alloca ptr, align 8
  %8 = alloca i32, align 4
  %9 = alloca [1 x %struct.wc_Sha512], align 16
  %10 = alloca i32, align 4
  store ptr %0, ptr %5, align 8, !tbaa !3
  store ptr %1, ptr %6, align 8, !tbaa !18
  store ptr %2, ptr %7, align 8, !tbaa !8
  call void @llvm.lifetime.start.p0(i64 4, ptr %8) #5
  call void @llvm.lifetime.start.p0(i64 224, ptr %9) #5
  %11 = load ptr, ptr %5, align 8, !tbaa !3
  %12 = icmp eq ptr %11, null
  br i1 %12, label %16, label %13

13:                                               ; preds = %3
  %14 = load ptr, ptr %6, align 8, !tbaa !18
  %15 = icmp eq ptr %14, null
  br i1 %15, label %16, label %17

16:                                               ; preds = %13, %3
  store i32 -173, ptr %4, align 4
  store i32 1, ptr %10, align 4
  br label %31

17:                                               ; preds = %13
  %18 = load ptr, ptr %5, align 8, !tbaa !3
  %19 = getelementptr inbounds [1 x %struct.wc_Sha512], ptr %9, i64 0, i64 0
  %20 = call i32 @wc_Sha512Copy(ptr noundef %18, ptr noundef %19)
  store i32 %20, ptr %8, align 4, !tbaa !9
  %21 = load i32, ptr %8, align 4, !tbaa !9
  %22 = icmp eq i32 %21, 0
  br i1 %22, label %23, label %29

23:                                               ; preds = %17
  %24 = load ptr, ptr %7, align 8, !tbaa !8
  %25 = getelementptr inbounds [1 x %struct.wc_Sha512], ptr %9, i64 0, i64 0
  %26 = load ptr, ptr %6, align 8, !tbaa !18
  %27 = call i32 %24(ptr noundef %25, ptr noundef %26)
  store i32 %27, ptr %8, align 4, !tbaa !9
  %28 = getelementptr inbounds [1 x %struct.wc_Sha512], ptr %9, i64 0, i64 0
  call void @wc_Sha512Free(ptr noundef %28)
  br label %29

29:                                               ; preds = %23, %17
  %30 = load i32, ptr %8, align 4, !tbaa !9
  store i32 %30, ptr %4, align 4
  store i32 1, ptr %10, align 4
  br label %31

31:                                               ; preds = %29, %16
  call void @llvm.lifetime.end.p0(i64 224, ptr %9) #5
  call void @llvm.lifetime.end.p0(i64 4, ptr %8) #5
  %32 = load i32, ptr %4, align 4
  ret i32 %32
}

; Function Attrs: nounwind uwtable
define i32 @wc_Sha512GetHash(ptr noundef %0, ptr noundef %1) #0 {
  %3 = alloca ptr, align 8
  %4 = alloca ptr, align 8
  store ptr %0, ptr %3, align 8, !tbaa !3
  store ptr %1, ptr %4, align 8, !tbaa !18
  %5 = load ptr, ptr %3, align 8, !tbaa !3
  %6 = load ptr, ptr %4, align 8, !tbaa !18
  %7 = call i32 @Sha512_Family_GetHash(ptr noundef %5, ptr noundef %6, ptr noundef @wc_Sha512Final)
  ret i32 %7
}