; Function Attrs: nofree norecurse nounwind memory(argmem: readwrite, inaccessiblemem: readwrite) uwtable
define range(i32 -192, 1) i32 @wc_Sha512GetHash(ptr noundef readonly captures(address_is_null) %0, ptr noundef captures(address_is_null) %1) local_unnamed_addr #1 {
  %3 = alloca [1 x %struct.wc_Sha512], align 16
  call void @llvm.lifetime.start.p0(i64 224, ptr nonnull %3) #8
  %4 = icmp eq ptr %0, null
  %5 = icmp eq ptr %1, null
  %or.cond.i = or i1 %4, %5
  br i1 %or.cond.i, label %Sha512_Family_GetHash.exit, label %.lr.ph29.preheader.i.i.i

.lr.ph29.preheader.i.i.i:                         ; preds = %2
  call void @llvm.memcpy.p0.p0.i64(ptr noundef nonnull align 16 dereferenceable(224) %3, ptr noundef nonnull readonly align 8 dereferenceable(224) %0, i64 224, i1 false)
  %6 = call i32 @wc_Sha512Final(ptr noundef nonnull %3, ptr noundef nonnull %1) #8, !callees !21
  br label %.lr.ph29.i.i.i

.lr.ph29.i.i.i:                                   ; preds = %.lr.ph29.i.i.i, %.lr.ph29.preheader.i.i.i
  %.01528.i.i.i = phi ptr [ %7, %.lr.ph29.i.i.i ], [ %3, %.lr.ph29.preheader.i.i.i ]
  %.01827.i.i.i = phi i32 [ %8, %.lr.ph29.i.i.i ], [ 224, %.lr.ph29.preheader.i.i.i ]
  %7 = getelementptr inbounds nuw i8, ptr %.01528.i.i.i, i64 8
  store volatile i64 0, ptr %.01528.i.i.i, align 8, !tbaa !10
  %8 = add nsw i32 %.01827.i.i.i, -8
  %.not.i = icmp eq i32 %8, 0
  br i1 %.not.i, label %Sha512_Family_GetHash.exit, label %.lr.ph29.i.i.i, !llvm.loop !19

Sha512_Family_GetHash.exit:                       ; preds = %.lr.ph29.i.i.i, %2
  %.08.i = phi i32 [ -173, %2 ], [ %6, %.lr.ph29.i.i.i ]
  call void @llvm.lifetime.end.p0(i64 224, ptr nonnull %3) #8
  ret i32 %.08.i
}